target datalayout = "e-m:e-p270:32:32-p271:32:32-p272:64:64-i64:64-i128:128-f80:128-n8:16:32:64-S128"
target triple = "x86_64-pc-linux-gnu"

%struct.H2645NAL = type { ptr, i32, i32, i32, ptr, %struct.GetBitContext, i32, i32, i32, i32, i32, i32, ptr }
%struct.GetBitContext = type { ptr, ptr, i32, i32, i32 }
%struct.H2645RBSP = type { ptr, ptr, i32, i32 }
%struct.H2645Packet = type { ptr, %struct.H2645RBSP, i32, i32, i32 }

; Function Attrs: nounwind uwtable
define void @ff_h2645_packet_uninit(ptr noundef %0) #0 {
  %2 = alloca ptr, align 8
  %3 = alloca i32, align 4
  store ptr %0, ptr %2, align 8, !tbaa !34
  call void @llvm.lifetime.start.p0(i64 4, ptr %3) #9
  store i32 0, ptr %3, align 4, !tbaa !9
  br label %4

4:                                                ; preds = %18, %1
  %5 = load i32, ptr %3, align 4, !tbaa !9
  %6 = load ptr, ptr %2, align 8, !tbaa !34
  %7 = getelementptr inbounds nuw %struct.H2645Packet, ptr %6, i32 0, i32 3
  %8 = load i32, ptr %7, align 4, !tbaa !46
  %9 = icmp slt i32 %5, %8
  br i1 %9, label %10, label %21

10:                                               ; preds = %4
  %11 = load ptr, ptr %2, align 8, !tbaa !34
  %12 = getelementptr inbounds nuw %struct.H2645Packet, ptr %11, i32 0, i32 0
  %13 = load ptr, ptr %12, align 8, !tbaa !47
  %14 = load i32, ptr %3, align 4, !tbaa !9
  %15 = sext i32 %14 to i64
  %16 = getelementptr inbounds %struct.H2645NAL, ptr %13, i64 %15
  %17 = getelementptr inbounds nuw %struct.H2645NAL, ptr %16, i32 0, i32 12
  call void @av_freep(ptr noundef %17)
  br label %18

18:                                               ; preds = %10
  %19 = load i32, ptr %3, align 4, !tbaa !9
  %20 = add nsw i32 %19, 1
  store i32 %20, ptr %3, align 4, !tbaa !9
  br label %4, !llvm.loop !70

21:                                               ; preds = %4
  %22 = load ptr, ptr %2, align 8, !tbaa !34
  %23 = getelementptr inbounds nuw %struct.H2645Packet, ptr %22, i32 0, i32 0
  call void @av_freep(ptr noundef %23)
  %24 = load ptr, ptr %2, align 8, !tbaa !34
  %25 = getelementptr inbounds nuw %struct.H2645Packet, ptr %24, i32 0, i32 4
  store i32 0, ptr %25, align 8, !tbaa !71
  %26 = load ptr, ptr %2, align 8, !tbaa !34
  %27 = getelementptr inbounds nuw %struct.H2645Packet, ptr %26, i32 0, i32 3
  store i32 0, ptr %27, align 4, !tbaa !46
  %28 = load ptr, ptr %2, align 8, !tbaa !34
  %29 = getelementptr inbounds nuw %struct.H2645Packet, ptr %28, i32 0, i32 1
  %30 = getelementptr inbounds nuw %struct.H2645RBSP, ptr %29, i32 0, i32 1
  %31 = load ptr, ptr %30, align 8, !tbaa !72
  %32 = icmp ne ptr %31, null
  br i1 %32, label %33, label %40

33:                                               ; preds = %21
  %34 = load ptr, ptr %2, align 8, !tbaa !34
  %35 = getelementptr inbounds nuw %struct.H2645Packet, ptr %34, i32 0, i32 1
  %36 = getelementptr inbounds nuw %struct.H2645RBSP, ptr %35, i32 0, i32 1
  call void @av_buffer_unref(ptr noundef %36)
  %37 = load ptr, ptr %2, align 8, !tbaa !34
  %38 = getelementptr inbounds nuw %struct.H2645Packet, ptr %37, i32 0, i32 1
  %39 = getelementptr inbounds nuw %struct.H2645RBSP, ptr %38, i32 0, i32 0
  store ptr null, ptr %39, align 8, !tbaa !39
  br label %44

40:                                               ; preds = %21
  %41 = load ptr, ptr %2, align 8, !tbaa !34
  %42 = getelementptr inbounds nuw %struct.H2645Packet, ptr %41, i32 0, i32 1
  %43 = getelementptr inbounds nuw %struct.H2645RBSP, ptr %42, i32 0, i32 0
  call void @av_freep(ptr noundef %43)
  br label %44

44:                                               ; preds = %40, %33
  %45 = load ptr, ptr %2, align 8, !tbaa !34
  %46 = getelementptr inbounds nuw %struct.H2645Packet, ptr %45, i32 0, i32 1
  %47 = getelementptr inbounds nuw %struct.H2645RBSP, ptr %46, i32 0, i32 3
  store i32 0, ptr %47, align 4, !tbaa !41
  %48 = load ptr, ptr %2, align 8, !tbaa !34
  %49 = getelementptr inbounds nuw %struct.H2645Packet, ptr %48, i32 0, i32 1
  %50 = getelementptr inbounds nuw %struct.H2645RBSP, ptr %49, i32 0, i32 2
  store i32 0, ptr %50, align 8, !tbaa !73
  call void @llvm.lifetime.end.p0(i64 4, ptr %3) #9
  ret void
}